target datalayout = "e-m:e-p270:32:32-p271:32:32-p272:64:64-i64:64-i128:128-f80:128-n8:16:32:64-S128"
target triple = "x86_64-pc-linux-gnu"

@.str.1 = private unnamed_addr constant [27 x i8] c"../openssl/apps/lib/apps.c\00", align 1
@bio_err = external global ptr, align 8
@.str.209 = private unnamed_addr constant [6 x i8] c"UNDEF\00", align 1
@.str.210 = private unnamed_addr constant [22 x i8] c"parameter error \22%s\22\0A\00", align 1

; Function Attrs: nounwind uwtable
define dso_local i32 @pkey_ctrl_string(ptr noundef %0, ptr noundef %1) #0 {
  %3 = alloca i32, align 4
  %4 = alloca ptr, align 8
  %5 = alloca ptr, align 8
  %6 = alloca i32, align 4
  %7 = alloca ptr, align 8
  %8 = alloca ptr, align 8
  %9 = alloca i32, align 4
  store ptr %0, ptr %4, align 8, !tbaa !143
  store ptr %1, ptr %5, align 8, !tbaa !9
  call void @llvm.lifetime.start.p0(i64 4, ptr %6) #12
  store i32 0, ptr %6, align 4, !tbaa !25
  call void @llvm.lifetime.start.p0(i64 8, ptr %7) #12
  call void @llvm.lifetime.start.p0(i64 8, ptr %8) #12
  store ptr null, ptr %8, align 8, !tbaa !9
  %10 = load ptr, ptr %5, align 8, !tbaa !9
  %11 = call noalias ptr @CRYPTO_strdup(ptr noundef %10, ptr noundef @.str.1, i32 noundef 2097)
  store ptr %11, ptr %7, align 8, !tbaa !9
  %12 = load ptr, ptr %7, align 8, !tbaa !9
  %13 = icmp eq ptr %12, null
  br i1 %13, label %14, label %15

14:                                               ; preds = %2
  store i32 -1, ptr %3, align 4
  store i32 1, ptr %9, align 4
  br label %32

15:                                               ; preds = %2
  %16 = load ptr, ptr %7, align 8, !tbaa !9
  %17 = call ptr @strchr(ptr noundef %16, i32 noundef 58) #14
  store ptr %17, ptr %8, align 8, !tbaa !9
  %18 = load ptr, ptr %8, align 8, !tbaa !9
  %19 = icmp eq ptr %18, null
  br i1 %19, label %20, label %21

20:                                               ; preds = %15
  br label %29

21:                                               ; preds = %15
  %22 = load ptr, ptr %8, align 8, !tbaa !9
  store i8 0, ptr %22, align 1, !tbaa !11
  %23 = load ptr, ptr %8, align 8, !tbaa !9
  %24 = getelementptr inbounds nuw i8, ptr %23, i32 1
  store ptr %24, ptr %8, align 8, !tbaa !9
  %25 = load ptr, ptr %4, align 8, !tbaa !143
  %26 = load ptr, ptr %7, align 8, !tbaa !9
  %27 = load ptr, ptr %8, align 8, !tbaa !9
  %28 = call i32 @EVP_PKEY_CTX_ctrl_str(ptr noundef %25, ptr noundef %26, ptr noundef %27)
  store i32 %28, ptr %6, align 4, !tbaa !25
  br label %29

29:                                               ; preds = %21, %20
  %30 = load ptr, ptr %7, align 8, !tbaa !9
  call void @CRYPTO_free(ptr noundef %30, ptr noundef @.str.1, i32 noundef 2109)
  %31 = load i32, ptr %6, align 4, !tbaa !25
  store i32 %31, ptr %3, align 4
  store i32 1, ptr %9, align 4
  br label %32

32:                                               ; preds = %29, %14
  call void @llvm.lifetime.end.p0(i64 8, ptr %8) #12
  call void @llvm.lifetime.end.p0(i64 8, ptr %7) #12
  call void @llvm.lifetime.end.p0(i64 4, ptr %6) #12
  %33 = load i32, ptr %3, align 4
  ret i32 %33
}

; Function Attrs: inlinehint nounwind uwtable
define internal ptr @ossl_check_const_OPENSSL_STRING_sk_type(ptr noundef %0) #5 {
  %2 = alloca ptr, align 8
  store ptr %0, ptr %2, align 8, !tbaa !84
  %3 = load ptr, ptr %2, align 8, !tbaa !84
  ret ptr %3
}

; Function Attrs: nounwind uwtable
define internal i32 @do_pkey_ctx_init(ptr noundef %0, ptr noundef %1) #0 {
  %3 = alloca i32, align 4
  %4 = alloca ptr, align 8
  %5 = alloca ptr, align 8
  %6 = alloca i32, align 4
  %7 = alloca i32, align 4
  %8 = alloca ptr, align 8
  store ptr %0, ptr %4, align 8, !tbaa !143
  store ptr %1, ptr %5, align 8, !tbaa !84
  call void @llvm.lifetime.start.p0(i64 4, ptr %6) #12
  %9 = load ptr, ptr %5, align 8, !tbaa !84
  %10 = icmp eq ptr %9, null
  br i1 %10, label %11, label %12

11:                                               ; preds = %2
  store i32 1, ptr %3, align 4
  store i32 1, ptr %7, align 4
  br label %41

12:                                               ; preds = %2
  store i32 0, ptr %6, align 4, !tbaa !25
  br label %13

13:                                               ; preds = %37, %12
  %14 = load i32, ptr %6, align 4, !tbaa !25
  %15 = load ptr, ptr %5, align 8, !tbaa !84
  %16 = call ptr @ossl_check_const_OPENSSL_STRING_sk_type(ptr noundef %15)
  %17 = call i32 @OPENSSL_sk_num(ptr noundef %16)
  %18 = icmp slt i32 %14, %17
  br i1 %18, label %19, label %40

19:                                               ; preds = %13
  call void @llvm.lifetime.start.p0(i64 8, ptr %8) #12
  %20 = load ptr, ptr %5, align 8, !tbaa !84
  %21 = call ptr @ossl_check_const_OPENSSL_STRING_sk_type(ptr noundef %20)
  %22 = load i32, ptr %6, align 4, !tbaa !25
  %23 = call ptr @OPENSSL_sk_value(ptr noundef %21, i32 noundef %22)
  store ptr %23, ptr %8, align 8, !tbaa !9
  %24 = load ptr, ptr %4, align 8, !tbaa !143
  %25 = load ptr, ptr %8, align 8, !tbaa !9
  %26 = call i32 @pkey_ctrl_string(ptr noundef %24, ptr noundef %25)
  %27 = icmp sle i32 %26, 0
  br i1 %27, label %28, label %33

28:                                               ; preds = %19
  %29 = load ptr, ptr @bio_err, align 8, !tbaa !35
  %30 = load ptr, ptr %8, align 8, !tbaa !9
  %31 = call i32 (ptr, ptr, ...) @BIO_printf(ptr noundef %29, ptr noundef @.str.210, ptr noundef %30)
  %32 = load ptr, ptr @bio_err, align 8, !tbaa !35
  call void @ERR_print_errors(ptr noundef %32)
  store i32 0, ptr %3, align 4
  store i32 1, ptr %7, align 4
  br label %34

33:                                               ; preds = %19
  store i32 0, ptr %7, align 4
  br label %34

34:                                               ; preds = %33, %28
  call void @llvm.lifetime.end.p0(i64 8, ptr %8) #12
  %35 = load i32, ptr %7, align 4
  switch i32 %35, label %41 [
    i32 0, label %36
  ]

36:                                               ; preds = %34
  br label %37

37:                                               ; preds = %36
  %38 = load i32, ptr %6, align 4, !tbaa !25
  %39 = add nsw i32 %38, 1
  store i32 %39, ptr %6, align 4, !tbaa !25
  br label %13, !llvm.loop !205

40:                                               ; preds = %13
  store i32 1, ptr %3, align 4
  store i32 1, ptr %7, align 4
  br label %41

41:                                               ; preds = %40, %34, %11
  call void @llvm.lifetime.end.p0(i64 4, ptr %6) #12
  %42 = load i32, ptr %3, align 4
  ret i32 %42
}

; Function Attrs: nounwind uwtable
define internal i32 @do_sign_init(ptr noundef %0, ptr noundef %1, ptr noundef %2, ptr noundef %3) #0 {
  %5 = alloca i32, align 4
  %6 = alloca ptr, align 8
  %7 = alloca ptr, align 8
  %8 = alloca ptr, align 8
  %9 = alloca ptr, align 8
  %10 = alloca ptr, align 8
  %11 = alloca [80 x i8], align 16
  %12 = alloca i32, align 4
  store ptr %0, ptr %6, align 8, !tbaa !157
  store ptr %1, ptr %7, align 8, !tbaa !67
  store ptr %2, ptr %8, align 8, !tbaa !9
  store ptr %3, ptr %9, align 8, !tbaa !84
  call void @llvm.lifetime.start.p0(i64 8, ptr %10) #12
  store ptr null, ptr %10, align 8, !tbaa !143
  call void @llvm.lifetime.start.p0(i64 80, ptr %11) #12
  %13 = load ptr, ptr %6, align 8, !tbaa !157
  %14 = icmp eq ptr %13, null
  br i1 %14, label %15, label %16

15:                                               ; preds = %4
  store i32 0, ptr %5, align 4
  store i32 1, ptr %12, align 4
  br label %42

16:                                               ; preds = %4
  %17 = load ptr, ptr %7, align 8, !tbaa !67
  %18 = getelementptr inbounds [80 x i8], ptr %11, i64 0, i64 0
  %19 = call i32 @EVP_PKEY_get_default_digest_name(ptr noundef %17, ptr noundef %18, i64 noundef 80)
  %20 = icmp eq i32 %19, 2
  br i1 %20, label %21, label %26

21:                                               ; preds = %16
  %22 = getelementptr inbounds [80 x i8], ptr %11, i64 0, i64 0
  %23 = call i32 @strcmp(ptr noundef %22, ptr noundef @.str.209) #14
  %24 = icmp eq i32 %23, 0
  br i1 %24, label %25, label %26

25:                                               ; preds = %21
  store ptr null, ptr %8, align 8, !tbaa !9
  br label %26

26:                                               ; preds = %25, %21, %16
  %27 = load ptr, ptr %6, align 8, !tbaa !157
  %28 = load ptr, ptr %8, align 8, !tbaa !9
  %29 = call ptr @app_get0_libctx()
  %30 = call ptr @app_get0_propq()
  %31 = load ptr, ptr %7, align 8, !tbaa !67
  %32 = call i32 @EVP_DigestSignInit_ex(ptr noundef %27, ptr noundef %10, ptr noundef %28, ptr noundef %29, ptr noundef %30, ptr noundef %31, ptr noundef null)
  %33 = icmp ne i32 %32, 0
  br i1 %33, label %34, label %39

34:                                               ; preds = %26
  %35 = load ptr, ptr %10, align 8, !tbaa !143
  %36 = load ptr, ptr %9, align 8, !tbaa !84
  %37 = call i32 @do_pkey_ctx_init(ptr noundef %35, ptr noundef %36)
  %38 = icmp ne i32 %37, 0
  br label %39

39:                                               ; preds = %34, %26
  %40 = phi i1 [ false, %26 ], [ %38, %34 ]
  %41 = zext i1 %40 to i32
  store i32 %41, ptr %5, align 4
  store i32 1, ptr %12, align 4
  br label %42

42:                                               ; preds = %39, %15
  call void @llvm.lifetime.end.p0(i64 80, ptr %11) #12
  call void @llvm.lifetime.end.p0(i64 8, ptr %10) #12
  %43 = load i32, ptr %5, align 4
  ret i32 %43
}