; Function Attrs: nounwind uwtable
define internal fastcc range(i32 0, 2) i32 @do_sign_init(ptr noundef %0, ptr noundef %1, ptr noundef %2, ptr noundef %3) unnamed_addr #0 {
  %5 = alloca ptr, align 8
  %6 = alloca [80 x i8], align 16
  call void @llvm.lifetime.start.p0(i64 8, ptr nonnull %5) #27
  store ptr null, ptr %5, align 8, !tbaa !92
  call void @llvm.lifetime.start.p0(i64 80, ptr nonnull %6) #27
  %7 = icmp eq ptr %0, null
  br i1 %7, label %do_pkey_ctx_init.exit, label %8

8:                                                ; preds = %4
  %9 = call i32 @EVP_PKEY_get_default_digest_name(ptr noundef %1, ptr noundef nonnull %6, i64 noundef 80) #27
  %10 = icmp eq i32 %9, 2
  br i1 %10, label %11, label %13

11:                                               ; preds = %8
  %bcmp = call i32 @bcmp(ptr noundef nonnull dereferenceable(6) %6, ptr noundef nonnull dereferenceable(6) @.str.209, i64 6)
  %12 = icmp eq i32 %bcmp, 0
  %spec.select = select i1 %12, ptr null, ptr %2
  br label %13

13:                                               ; preds = %11, %8
  %.06 = phi ptr [ %2, %8 ], [ %spec.select, %11 ]
  %14 = call ptr @app_get0_libctx() #27
  %15 = call ptr @app_get0_propq() #27
  %16 = call i32 @EVP_DigestSignInit_ex(ptr noundef nonnull %0, ptr noundef nonnull %5, ptr noundef %.06, ptr noundef %14, ptr noundef %15, ptr noundef %1, ptr noundef null) #27
  %.not = icmp eq i32 %16, 0
  br i1 %.not, label %do_pkey_ctx_init.exit, label %17

17:                                               ; preds = %13
  %18 = load ptr, ptr %5, align 8, !tbaa !92
  %19 = icmp eq ptr %3, null
  br i1 %19, label %do_pkey_ctx_init.exit, label %.preheader.i

.preheader.i:                                     ; preds = %17
  %20 = call i32 @OPENSSL_sk_num(ptr noundef nonnull %3) #27
  %21 = icmp sgt i32 %20, 0
  br i1 %21, label %.lr.ph.i, label %do_pkey_ctx_init.exit

22:                                               ; preds = %pkey_ctrl_string.exit.i
  %23 = add nuw nsw i32 %.01119.i, 1
  %24 = call i32 @OPENSSL_sk_num(ptr noundef nonnull %3) #27
  %25 = icmp slt i32 %23, %24
  br i1 %25, label %.lr.ph.i, label %do_pkey_ctx_init.exit, !llvm.loop !94

.lr.ph.i:                                         ; preds = %.preheader.i, %22
  %.01119.i = phi i32 [ %23, %22 ], [ 0, %.preheader.i ]
  %26 = call ptr @OPENSSL_sk_value(ptr noundef nonnull %3, i32 noundef %.01119.i) #27
  %27 = call noalias ptr @CRYPTO_strdup(ptr noundef %26, ptr noundef nonnull @.str.1, i32 noundef 2097) #27
  %28 = icmp eq ptr %27, null
  br i1 %28, label %pkey_ctrl_string.exit.thread.i, label %29

29:                                               ; preds = %.lr.ph.i
  %30 = call ptr @strchr(ptr noundef nonnull dereferenceable(1) %27, i32 noundef 58) #29
  %31 = icmp eq ptr %30, null
  br i1 %31, label %pkey_ctrl_string.exit.thread14.i, label %pkey_ctrl_string.exit.i

pkey_ctrl_string.exit.thread14.i:                 ; preds = %29
  call void @CRYPTO_free(ptr noundef nonnull %27, ptr noundef nonnull @.str.1, i32 noundef 2109) #27
  br label %pkey_ctrl_string.exit.thread.i

pkey_ctrl_string.exit.i:                          ; preds = %29
  store i8 0, ptr %30, align 1, !tbaa !13
  %32 = getelementptr inbounds nuw i8, ptr %30, i64 1
  %33 = call i32 @EVP_PKEY_CTX_ctrl_str(ptr noundef %18, ptr noundef nonnull %27, ptr noundef nonnull %32) #27
  call void @CRYPTO_free(ptr noundef nonnull %27, ptr noundef nonnull @.str.1, i32 noundef 2109) #27
  %34 = icmp sgt i32 %33, 0
  br i1 %34, label %22, label %pkey_ctrl_string.exit.thread.i

pkey_ctrl_string.exit.thread.i:                   ; preds = %pkey_ctrl_string.exit.i, %.lr.ph.i, %pkey_ctrl_string.exit.thread14.i
  %35 = load ptr, ptr @bio_err, align 8, !tbaa !26
  %36 = call i32 (ptr, ptr, ...) @BIO_printf(ptr noundef %35, ptr noundef nonnull @.str.210, ptr noundef %26) #27
  %37 = load ptr, ptr @bio_err, align 8, !tbaa !26
  call void @ERR_print_errors(ptr noundef %37) #27
  br label %do_pkey_ctx_init.exit

do_pkey_ctx_init.exit:                            ; preds = %22, %pkey_ctrl_string.exit.thread.i, %.preheader.i, %17, %13, %4
  %.0 = phi i32 [ 0, %4 ], [ 0, %13 ], [ 0, %pkey_ctrl_string.exit.thread.i ], [ 1, %17 ], [ 1, %.preheader.i ], [ 1, %22 ]
  call void @llvm.lifetime.end.p0(i64 80, ptr nonnull %6) #27
  call void @llvm.lifetime.end.p0(i64 8, ptr nonnull %5) #27
  ret i32 %.0
}